; Function Attrs: mustprogress nofree nounwind willreturn memory(argmem: read) uwtable
define noundef ptr @_Z11PointToNamePKw(ptr noundef readonly %0) local_unnamed_addr #0 {
  %2 = tail call i64 @wcslen(ptr noundef %0) #18
  %3 = and i64 %2, 4294967295
  br label %4

4:                                                ; preds = %7, %1
  %indvars.iv = phi i64 [ %8, %7 ], [ %3, %1 ]
  %5 = trunc nuw i64 %indvars.iv to i32
  %6 = icmp sgt i32 %5, 0
  br i1 %6, label %7, label %.loopexit

7:                                                ; preds = %4
  %8 = add nsw i64 %indvars.iv, -1
  %9 = getelementptr inbounds nuw i32, ptr %0, i64 %8
  %10 = load i32, ptr %9, align 4
  %11 = icmp eq i32 %10, 47
  br i1 %11, label %12, label %4, !llvm.loop !4

12:                                               ; preds = %7
  %13 = getelementptr inbounds nuw i32, ptr %0, i64 %indvars.iv
  br label %.loopexit

.loopexit:                                        ; preds = %4, %12
  %.011 = phi ptr [ %13, %12 ], [ %0, %4 ]
  ret ptr %.011
}